target datalayout = "e-m:e-p270:32:32-p271:32:32-p272:64:64-i64:64-i128:128-f80:128-n8:16:32:64-S128"
target triple = "x86_64-pc-linux-gnu"

%struct.jv = type { i8, i8, i16, i32, %union.anon }
%union.anon = type { ptr }

@environ = external global ptr, align 8

; Function Attrs: nounwind uwtable
define internal { i64, ptr } @f_env(ptr noundef %0, i64 %1, ptr %2) #0 {
  %4 = alloca %struct.jv, align 8
  %5 = alloca %struct.jv, align 8
  %6 = alloca ptr, align 8
  %7 = alloca ptr, align 8
  %8 = alloca ptr, align 8
  %9 = alloca ptr, align 8
  %10 = alloca %struct.jv, align 8
  %11 = alloca %struct.jv, align 8
  %12 = alloca %struct.jv, align 8
  %13 = alloca %struct.jv, align 8
  %14 = alloca %struct.jv, align 8
  %15 = alloca %struct.jv, align 8
  %16 = getelementptr inbounds nuw { i64, ptr }, ptr %5, i32 0, i32 0
  store i64 %1, ptr %16, align 8
  %17 = getelementptr inbounds nuw { i64, ptr }, ptr %5, i32 0, i32 1
  store ptr %2, ptr %17, align 8
  store ptr %0, ptr %6, align 8, !tbaa !25
  %18 = getelementptr inbounds nuw { i64, ptr }, ptr %5, i32 0, i32 0
  %19 = load i64, ptr %18, align 8
  %20 = getelementptr inbounds nuw { i64, ptr }, ptr %5, i32 0, i32 1
  %21 = load ptr, ptr %20, align 8
  call void @jv_free(i64 %19, ptr %21)
  %22 = call { i64, ptr } @jv_object()
  %23 = getelementptr inbounds nuw { i64, ptr }, ptr %4, i32 0, i32 0
  %24 = extractvalue { i64, ptr } %22, 0
  store i64 %24, ptr %23, align 8
  %25 = getelementptr inbounds nuw { i64, ptr }, ptr %4, i32 0, i32 1
  %26 = extractvalue { i64, ptr } %22, 1
  store ptr %26, ptr %25, align 8
  call void @llvm.lifetime.start.p0(i64 8, ptr %7) #10
  call void @llvm.lifetime.start.p0(i64 8, ptr %8) #10
  call void @llvm.lifetime.start.p0(i64 8, ptr %9) #10
  %27 = load ptr, ptr @environ, align 8, !tbaa !54
  store ptr %27, ptr %9, align 8, !tbaa !54
  br label %28

28:                                               ; preds = %118, %3
  %29 = load ptr, ptr %9, align 8, !tbaa !54
  %30 = load ptr, ptr %29, align 8, !tbaa !12
  %31 = icmp ne ptr %30, null
  br i1 %31, label %33, label %32

32:                                               ; preds = %28
  call void @llvm.lifetime.end.p0(i64 8, ptr %9) #10
  br label %121

33:                                               ; preds = %28
  %34 = load ptr, ptr %9, align 8, !tbaa !54
  %35 = getelementptr inbounds ptr, ptr %34, i64 0
  %36 = load ptr, ptr %35, align 8, !tbaa !12
  store ptr %36, ptr %7, align 8, !tbaa !12
  %37 = load ptr, ptr %9, align 8, !tbaa !54
  %38 = getelementptr inbounds ptr, ptr %37, i64 0
  %39 = load ptr, ptr %38, align 8, !tbaa !12
  %40 = call ptr @strchr(ptr noundef %39, i32 noundef 61) #12
  store ptr %40, ptr %8, align 8, !tbaa !12
  %41 = load ptr, ptr %8, align 8, !tbaa !12
  %42 = icmp eq ptr %41, null
  br i1 %42, label %43, label %72

43:                                               ; preds = %33
  call void @llvm.lifetime.start.p0(i64 16, ptr %10) #10
  %44 = load ptr, ptr %7, align 8, !tbaa !12
  %45 = call { i64, ptr } @jv_string(ptr noundef %44)
  %46 = getelementptr inbounds nuw { i64, ptr }, ptr %11, i32 0, i32 0
  %47 = extractvalue { i64, ptr } %45, 0
  store i64 %47, ptr %46, align 8
  %48 = getelementptr inbounds nuw { i64, ptr }, ptr %11, i32 0, i32 1
  %49 = extractvalue { i64, ptr } %45, 1
  store ptr %49, ptr %48, align 8
  %50 = call { i64, ptr } @jv_null()
  %51 = getelementptr inbounds nuw { i64, ptr }, ptr %12, i32 0, i32 0
  %52 = extractvalue { i64, ptr } %50, 0
  store i64 %52, ptr %51, align 8
  %53 = getelementptr inbounds nuw { i64, ptr }, ptr %12, i32 0, i32 1
  %54 = extractvalue { i64, ptr } %50, 1
  store ptr %54, ptr %53, align 8
  %55 = getelementptr inbounds nuw { i64, ptr }, ptr %4, i32 0, i32 0
  %56 = load i64, ptr %55, align 8
  %57 = getelementptr inbounds nuw { i64, ptr }, ptr %4, i32 0, i32 1
  %58 = load ptr, ptr %57, align 8
  %59 = getelementptr inbounds nuw { i64, ptr }, ptr %11, i32 0, i32 0
  %60 = load i64, ptr %59, align 8
  %61 = getelementptr inbounds nuw { i64, ptr }, ptr %11, i32 0, i32 1
  %62 = load ptr, ptr %61, align 8
  %63 = getelementptr inbounds nuw { i64, ptr }, ptr %12, i32 0, i32 0
  %64 = load i64, ptr %63, align 8
  %65 = getelementptr inbounds nuw { i64, ptr }, ptr %12, i32 0, i32 1
  %66 = load ptr, ptr %65, align 8
  %67 = call { i64, ptr } @jv_object_set(i64 %56, ptr %58, i64 %60, ptr %62, i64 %64, ptr %66)
  %68 = getelementptr inbounds nuw { i64, ptr }, ptr %10, i32 0, i32 0
  %69 = extractvalue { i64, ptr } %67, 0
  store i64 %69, ptr %68, align 8
  %70 = getelementptr inbounds nuw { i64, ptr }, ptr %10, i32 0, i32 1
  %71 = extractvalue { i64, ptr } %67, 1
  store ptr %71, ptr %70, align 8
  call void @llvm.memcpy.p0.p0.i64(ptr align 8 %4, ptr align 8 %10, i64 16, i1 false), !tbaa.struct !4
  call void @llvm.lifetime.end.p0(i64 16, ptr %10) #10
  br label %117

72:                                               ; preds = %33
  %73 = load ptr, ptr %7, align 8, !tbaa !12
  %74 = load ptr, ptr %8, align 8, !tbaa !12
  %75 = ptrtoint ptr %73 to i64
  %76 = ptrtoint ptr %74 to i64
  %77 = sub i64 %75, %76
  %78 = icmp slt i64 %77, 2147483647
  br i1 %78, label %79, label %116

79:                                               ; preds = %72
  call void @llvm.lifetime.start.p0(i64 16, ptr %13) #10
  %80 = load ptr, ptr %7, align 8, !tbaa !12
  %81 = load ptr, ptr %8, align 8, !tbaa !12
  %82 = load ptr, ptr %7, align 8, !tbaa !12
  %83 = ptrtoint ptr %81 to i64
  %84 = ptrtoint ptr %82 to i64
  %85 = sub i64 %83, %84
  %86 = trunc i64 %85 to i32
  %87 = call { i64, ptr } @jv_string_sized(ptr noundef %80, i32 noundef %86)
  %88 = getelementptr inbounds nuw { i64, ptr }, ptr %14, i32 0, i32 0
  %89 = extractvalue { i64, ptr } %87, 0
  store i64 %89, ptr %88, align 8
  %90 = getelementptr inbounds nuw { i64, ptr }, ptr %14, i32 0, i32 1
  %91 = extractvalue { i64, ptr } %87, 1
  store ptr %91, ptr %90, align 8
  %92 = load ptr, ptr %8, align 8, !tbaa !12
  %93 = getelementptr inbounds i8, ptr %92, i64 1
  %94 = call { i64, ptr } @jv_string(ptr noundef %93)
  %95 = getelementptr inbounds nuw { i64, ptr }, ptr %15, i32 0, i32 0
  %96 = extractvalue { i64, ptr } %94, 0
  store i64 %96, ptr %95, align 8
  %97 = getelementptr inbounds nuw { i64, ptr }, ptr %15, i32 0, i32 1
  %98 = extractvalue { i64, ptr } %94, 1
  store ptr %98, ptr %97, align 8
  %99 = getelementptr inbounds nuw { i64, ptr }, ptr %4, i32 0, i32 0
  %100 = load i64, ptr %99, align 8
  %101 = getelementptr inbounds nuw { i64, ptr }, ptr %4, i32 0, i32 1
  %102 = load ptr, ptr %101, align 8
  %103 = getelementptr inbounds nuw { i64, ptr }, ptr %14, i32 0, i32 0
  %104 = load i64, ptr %103, align 8
  %105 = getelementptr inbounds nuw { i64, ptr }, ptr %14, i32 0, i32 1
  %106 = load ptr, ptr %105, align 8
  %107 = getelementptr inbounds nuw { i64, ptr }, ptr %15, i32 0, i32 0
  %108 = load i64, ptr %107, align 8
  %109 = getelementptr inbounds nuw { i64, ptr }, ptr %15, i32 0, i32 1
  %110 = load ptr, ptr %109, align 8
  %111 = call { i64, ptr } @jv_object_set(i64 %100, ptr %102, i64 %104, ptr %106, i64 %108, ptr %110)
  %112 = getelementptr inbounds nuw { i64, ptr }, ptr %13, i32 0, i32 0
  %113 = extractvalue { i64, ptr } %111, 0
  store i64 %113, ptr %112, align 8
  %114 = getelementptr inbounds nuw { i64, ptr }, ptr %13, i32 0, i32 1
  %115 = extractvalue { i64, ptr } %111, 1
  store ptr %115, ptr %114, align 8
  call void @llvm.memcpy.p0.p0.i64(ptr align 8 %4, ptr align 8 %13, i64 16, i1 false), !tbaa.struct !4
  call void @llvm.lifetime.end.p0(i64 16, ptr %13) #10
  br label %116

116:                                              ; preds = %79, %72
  br label %117

117:                                              ; preds = %116, %43
  br label %118

118:                                              ; preds = %117
  %119 = load ptr, ptr %9, align 8, !tbaa !54
  %120 = getelementptr inbounds nuw ptr, ptr %119, i32 1
  store ptr %120, ptr %9, align 8, !tbaa !54
  br label %28, !llvm.loop !56

121:                                              ; preds = %32
  call void @llvm.lifetime.end.p0(i64 8, ptr %8) #10
  call void @llvm.lifetime.end.p0(i64 8, ptr %7) #10
  %122 = load { i64, ptr }, ptr %4, align 8
  ret { i64, ptr } %122
}