; Function Attrs: nounwind uwtable
define internal { i64, ptr } @f_env(ptr readnone captures(none) %0, i64 %1, ptr %2) #0 {
  tail call void @jv_free(i64 %1, ptr %2) #14
  %4 = tail call { i64, ptr } @jv_object() #14
  %5 = load ptr, ptr @environ, align 8, !tbaa !36
  %6 = load ptr, ptr %5, align 8, !tbaa !38
  %.not29 = icmp eq ptr %6, null
  br i1 %.not29, label %._crit_edge, label %.lr.ph.preheader

.lr.ph.preheader:                                 ; preds = %3
  %7 = extractvalue { i64, ptr } %4, 1
  %8 = extractvalue { i64, ptr } %4, 0
  br label %.lr.ph

._crit_edge.loopexit:                             ; preds = %42
  %9 = insertvalue { i64, ptr } poison, i64 %.sroa.023.1, 0
  %10 = insertvalue { i64, ptr } %9, ptr %.sroa.6.1, 1
  br label %._crit_edge

._crit_edge:                                      ; preds = %._crit_edge.loopexit, %3
  %.fca.1.insert.merged = phi { i64, ptr } [ %4, %3 ], [ %10, %._crit_edge.loopexit ]
  ret { i64, ptr } %.fca.1.insert.merged

.lr.ph:                                           ; preds = %.lr.ph.preheader, %42
  %11 = phi ptr [ %44, %42 ], [ %6, %.lr.ph.preheader ]
  %.sroa.6.032 = phi ptr [ %.sroa.6.1, %42 ], [ %7, %.lr.ph.preheader ]
  %.sroa.023.031 = phi i64 [ %.sroa.023.1, %42 ], [ %8, %.lr.ph.preheader ]
  %.030 = phi ptr [ %43, %42 ], [ %5, %.lr.ph.preheader ]
  %12 = tail call ptr @strchr(ptr noundef nonnull dereferenceable(1) %11, i32 noundef 61) #17
  %13 = icmp eq ptr %12, null
  br i1 %13, label %14, label %24

14:                                               ; preds = %.lr.ph
  %15 = tail call { i64, ptr } @jv_string(ptr noundef nonnull %11) #14
  %16 = extractvalue { i64, ptr } %15, 0
  %17 = extractvalue { i64, ptr } %15, 1
  %18 = tail call { i64, ptr } @jv_null() #14
  %19 = extractvalue { i64, ptr } %18, 0
  %20 = extractvalue { i64, ptr } %18, 1
  %21 = tail call { i64, ptr } @jv_object_set(i64 %.sroa.023.031, ptr %.sroa.6.032, i64 %16, ptr %17, i64 %19, ptr %20) #14
  %22 = extractvalue { i64, ptr } %21, 0
  %23 = extractvalue { i64, ptr } %21, 1
  br label %42

24:                                               ; preds = %.lr.ph
  %25 = ptrtoint ptr %11 to i64
  %26 = ptrtoint ptr %12 to i64
  %27 = sub i64 %25, %26
  %28 = icmp slt i64 %27, 2147483647
  br i1 %28, label %29, label %42

29:                                               ; preds = %24
  %30 = sub i64 %26, %25
  %31 = trunc i64 %30 to i32
  %32 = tail call { i64, ptr } @jv_string_sized(ptr noundef nonnull %11, i32 noundef %31) #14
  %33 = extractvalue { i64, ptr } %32, 0
  %34 = extractvalue { i64, ptr } %32, 1
  %35 = getelementptr inbounds nuw i8, ptr %12, i64 1
  %36 = tail call { i64, ptr } @jv_string(ptr noundef nonnull %35) #14
  %37 = extractvalue { i64, ptr } %36, 0
  %38 = extractvalue { i64, ptr } %36, 1
  %39 = tail call { i64, ptr } @jv_object_set(i64 %.sroa.023.031, ptr %.sroa.6.032, i64 %33, ptr %34, i64 %37, ptr %38) #14
  %40 = extractvalue { i64, ptr } %39, 0
  %41 = extractvalue { i64, ptr } %39, 1
  br label %42

42:                                               ; preds = %14, %29, %24
  %.sroa.023.1 = phi i64 [ %22, %14 ], [ %40, %29 ], [ %.sroa.023.031, %24 ]
  %.sroa.6.1 = phi ptr [ %23, %14 ], [ %41, %29 ], [ %.sroa.6.032, %24 ]
  %43 = getelementptr inbounds nuw i8, ptr %.030, i64 8
  %44 = load ptr, ptr %43, align 8, !tbaa !38
  %.not = icmp eq ptr %44, null
  br i1 %.not, label %._crit_edge.loopexit, label %.lr.ph, !llvm.loop !39
}